; Function Attrs: nounwind allocsize(1) uwtable
define noalias noundef ptr @__zend_realloc(ptr nocapture noundef %0, i64 noundef %1) #7 {
  %3 = tail call ptr @realloc(ptr noundef %0, i64 noundef %1) #43
  %4 = icmp ne ptr %3, null
  %.not = icmp eq i64 %1, 0
  %5 = or i1 %.not, %4
  br i1 %5, label %6, label %7

6:                                                ; preds = %2
  ret ptr %3

7:                                                ; preds = %2
  tail call fastcc void @zend_out_of_memory() #34
  unreachable
}